; ModuleID = '57/229.c'
source_filename = "57/229.c"
target datalayout = "e-m:e-p270:32:32-p271:32:32-p272:64:64-i64:64-f80:128-n8:16:32:64-S128"
target triple = "x86_64-pc-linux-gnu"

@.str = private unnamed_addr constant [3 x i8] c"%d\00", align 1
@.str.1 = private unnamed_addr constant [3 x i8] c"%c\00", align 1
@.str.2 = private unnamed_addr constant [2 x i8] c"\0A\00", align 1

; Function Attrs: noinline nounwind uwtable
define dso_local void @main() #0 {
  %1 = alloca i32, align 4
  %2 = alloca i32, align 4
  %3 = alloca i32, align 4
  %4 = alloca [51 x i32], align 16
  %5 = alloca [51 x [51 x i8]], align 16
  %6 = alloca [10 x i8], align 1
  %7 = bitcast [51 x i32]* %4 to i8*
  call void @llvm.memset.p0i8.i64(i8* align 16 %7, i8 0, i64 204, i1 false)
  %8 = call i32 (i8*, ...) @__isoc99_scanf(i8* getelementptr inbounds ([3 x i8], [3 x i8]* @.str, i64 0, i64 0), i32* %1)
  store i32 0, i32* %2, align 4
  br label %9

9:                                                ; preds = %29, %0
  %10 = load i32, i32* %2, align 4
  %11 = load i32, i32* %1, align 4
  %12 = add nsw i32 %11, 1
  %13 = icmp slt i32 %10, %12
  br i1 %13, label %14, label %32

14:                                               ; preds = %9
  %15 = load i32, i32* %2, align 4
  %16 = sext i32 %15 to i64
  %17 = getelementptr inbounds [51 x [51 x i8]], [51 x [51 x i8]]* %5, i64 0, i64 %16
  %18 = getelementptr inbounds [51 x i8], [51 x i8]* %17, i64 0, i64 0
  %19 = call i32 (i8*, ...) bitcast (i32 (...)* @gets to i32 (i8*, ...)*)(i8* %18)
  %20 = load i32, i32* %2, align 4
  %21 = sext i32 %20 to i64
  %22 = getelementptr inbounds [51 x [51 x i8]], [51 x [51 x i8]]* %5, i64 0, i64 %21
  %23 = getelementptr inbounds [51 x i8], [51 x i8]* %22, i64 0, i64 0
  %24 = call i64 @strlen(i8* %23) #4
  %25 = trunc i64 %24 to i32
  %26 = load i32, i32* %2, align 4
  %27 = sext i32 %26 to i64
  %28 = getelementptr inbounds [51 x i32], [51 x i32]* %4, i64 0, i64 %27
  store i32 %25, i32* %28, align 4
  br label %29

29:                                               ; preds = %14
  %30 = load i32, i32* %2, align 4
  %31 = add nsw i32 %30, 1
  store i32 %31, i32* %2, align 4
  br label %9

32:                                               ; preds = %9
  store i32 1, i32* %2, align 4
  br label %33

33:                                               ; preds = %153, %32
  %34 = load i32, i32* %2, align 4
  %35 = load i32, i32* %1, align 4
  %36 = add nsw i32 %35, 1
  %37 = icmp slt i32 %34, %36
  br i1 %37, label %38, label %156

38:                                               ; preds = %33
  %39 = load i32, i32* %2, align 4
  %40 = sext i32 %39 to i64
  %41 = getelementptr inbounds [51 x [51 x i8]], [51 x [51 x i8]]* %5, i64 0, i64 %40
  %42 = load i32, i32* %2, align 4
  %43 = sext i32 %42 to i64
  %44 = getelementptr inbounds [51 x i32], [51 x i32]* %4, i64 0, i64 %43
  %45 = load i32, i32* %44, align 4
  %46 = sub nsw i32 %45, 1
  %47 = sext i32 %46 to i64
  %48 = getelementptr inbounds [51 x i8], [51 x i8]* %41, i64 0, i64 %47
  %49 = load i8, i8* %48, align 1
  %50 = sext i8 %49 to i32
  %51 = icmp eq i32 %50, 114
  br i1 %51, label %52, label %75

52:                                               ; preds = %38
  store i32 0, i32* %3, align 4
  br label %53

53:                                               ; preds = %71, %52
  %54 = load i32, i32* %3, align 4
  %55 = load i32, i32* %2, align 4
  %56 = sext i32 %55 to i64
  %57 = getelementptr inbounds [51 x i32], [51 x i32]* %4, i64 0, i64 %56
  %58 = load i32, i32* %57, align 4
  %59 = sub nsw i32 %58, 2
  %60 = icmp slt i32 %54, %59
  br i1 %60, label %61, label %74

61:                                               ; preds = %53
  %62 = load i32, i32* %2, align 4
  %63 = sext i32 %62 to i64
  %64 = getelementptr inbounds [51 x [51 x i8]], [51 x [51 x i8]]* %5, i64 0, i64 %63
  %65 = load i32, i32* %3, align 4
  %66 = sext i32 %65 to i64
  %67 = getelementptr inbounds [51 x i8], [51 x i8]* %64, i64 0, i64 %66
  %68 = load i8, i8* %67, align 1
  %69 = sext i8 %68 to i32
  %70 = call i32 (i8*, ...) @printf(i8* getelementptr inbounds ([3 x i8], [3 x i8]* @.str.1, i64 0, i64 0), i32 %69)
  br label %71

71:                                               ; preds = %61
  %72 = load i32, i32* %3, align 4
  %73 = add nsw i32 %72, 1
  store i32 %73, i32* %3, align 4
  br label %53

74:                                               ; preds = %53
  br label %151

75:                                               ; preds = %38
  %76 = load i32, i32* %2, align 4
  %77 = sext i32 %76 to i64
  %78 = getelementptr inbounds [51 x [51 x i8]], [51 x [51 x i8]]* %5, i64 0, i64 %77
  %79 = load i32, i32* %2, align 4
  %80 = sext i32 %79 to i64
  %81 = getelementptr inbounds [51 x i32], [51 x i32]* %4, i64 0, i64 %80
  %82 = load i32, i32* %81, align 4
  %83 = sub nsw i32 %82, 1
  %84 = sext i32 %83 to i64
  %85 = getelementptr inbounds [51 x i8], [51 x i8]* %78, i64 0, i64 %84
  %86 = load i8, i8* %85, align 1
  %87 = sext i8 %86 to i32
  %88 = icmp eq i32 %87, 121
  br i1 %88, label %89, label %112

89:                                               ; preds = %75
  store i32 0, i32* %3, align 4
  br label %90

90:                                               ; preds = %108, %89
  %91 = load i32, i32* %3, align 4
  %92 = load i32, i32* %2, align 4
  %93 = sext i32 %92 to i64
  %94 = getelementptr inbounds [51 x i32], [51 x i32]* %4, i64 0, i64 %93
  %95 = load i32, i32* %94, align 4
  %96 = sub nsw i32 %95, 2
  %97 = icmp slt i32 %91, %96
  br i1 %97, label %98, label %111

98:                                               ; preds = %90
  %99 = load i32, i32* %2, align 4
  %100 = sext i32 %99 to i64
  %101 = getelementptr inbounds [51 x [51 x i8]], [51 x [51 x i8]]* %5, i64 0, i64 %100
  %102 = load i32, i32* %3, align 4
  %103 = sext i32 %102 to i64
  %104 = getelementptr inbounds [51 x i8], [51 x i8]* %101, i64 0, i64 %103
  %105 = load i8, i8* %104, align 1
  %106 = sext i8 %105 to i32
  %107 = call i32 (i8*, ...) @printf(i8* getelementptr inbounds ([3 x i8], [3 x i8]* @.str.1, i64 0, i64 0), i32 %106)
  br label %108

108:                                              ; preds = %98
  %109 = load i32, i32* %3, align 4
  %110 = add nsw i32 %109, 1
  store i32 %110, i32* %3, align 4
  br label %90

111:                                              ; preds = %90
  br label %150

112:                                              ; preds = %75
  %113 = load i32, i32* %2, align 4
  %114 = sext i32 %113 to i64
  %115 = getelementptr inbounds [51 x [51 x i8]], [51 x [51 x i8]]* %5, i64 0, i64 %114
  %116 = load i32, i32* %2, align 4
  %117 = sext i32 %116 to i64
  %118 = getelementptr inbounds [51 x i32], [51 x i32]* %4, i64 0, i64 %117
  %119 = load i32, i32* %118, align 4
  %120 = sub nsw i32 %119, 1
  %121 = sext i32 %120 to i64
  %122 = getelementptr inbounds [51 x i8], [51 x i8]* %115, i64 0, i64 %121
  %123 = load i8, i8* %122, align 1
  %124 = sext i8 %123 to i32
  %125 = icmp eq i32 %124, 103
  br i1 %125, label %126, label %149

126:                                              ; preds = %112
  store i32 0, i32* %3, align 4
  br label %127

127:                                              ; preds = %145, %126
  %128 = load i32, i32* %3, align 4
  %129 = load i32, i32* %2, align 4
  %130 = sext i32 %129 to i64
  %131 = getelementptr inbounds [51 x i32], [51 x i32]* %4, i64 0, i64 %130
  %132 = load i32, i32* %131, align 4
  %133 = sub nsw i32 %132, 3
  %134 = icmp slt i32 %128, %133
  br i1 %134, label %135, label %148

135:                                              ; preds = %127
  %136 = load i32, i32* %2, align 4
  %137 = sext i32 %136 to i64
  %138 = getelementptr inbounds [51 x [51 x i8]], [51 x [51 x i8]]* %5, i64 0, i64 %137
  %139 = load i32, i32* %3, align 4
  %140 = sext i32 %139 to i64
  %141 = getelementptr inbounds [51 x i8], [51 x i8]* %138, i64 0, i64 %140
  %142 = load i8, i8* %141, align 1
  %143 = sext i8 %142 to i32
  %144 = call i32 (i8*, ...) @printf(i8* getelementptr inbounds ([3 x i8], [3 x i8]* @.str.1, i64 0, i64 0), i32 %143)
  br label %145

145:                                              ; preds = %135
  %146 = load i32, i32* %3, align 4
  %147 = add nsw i32 %146, 1
  store i32 %147, i32* %3, align 4
  br label %127

148:                                              ; preds = %127
  br label %149

149:                                              ; preds = %148, %112
  br label %150

150:                                              ; preds = %149, %111
  br label %151

151:                                              ; preds = %150, %74
  %152 = call i32 (i8*, ...) @printf(i8* getelementptr inbounds ([2 x i8], [2 x i8]* @.str.2, i64 0, i64 0))
  br label %153

153:                                              ; preds = %151
  %154 = load i32, i32* %2, align 4
  %155 = add nsw i32 %154, 1
  store i32 %155, i32* %2, align 4
  br label %33

156:                                              ; preds = %33
  ret void
}

; Function Attrs: argmemonly nounwind willreturn
declare void @llvm.memset.p0i8.i64(i8* nocapture writeonly, i8, i64, i1 immarg) #1

declare dso_local i32 @__isoc99_scanf(i8*, ...) #2

declare dso_local i32 @gets(...) #2

; Function Attrs: nounwind readonly
declare dso_local i64 @strlen(i8*) #3

declare dso_local i32 @printf(i8*, ...) #2


!llvm.module.flags = !{!0}
!llvm.ident = !{!1}

!0 = !{i32 1, !"wchar_size", i32 4}
!1 = !{!"clang version 10.0.0-4ubuntu1 "}
